target datalayout = "e-m:e-p270:32:32-p271:32:32-p272:64:64-i64:64-i128:128-f80:128-n8:16:32:64-S128"
target triple = "x86_64-pc-linux-gnu"

@.str.7 = private unnamed_addr constant [17 x i8] c"PGCLIENTENCODING\00", align 1

; Function Attrs: nounwind uwtable
define i32 @PQenv2encoding() #0 {
  %1 = alloca ptr, align 8
  %2 = alloca i32, align 4
  call void @llvm.lifetime.start.p0(i64 8, ptr %1) #10
  call void @llvm.lifetime.start.p0(i64 4, ptr %2) #10
  store i32 0, ptr %2, align 4
  %3 = call ptr @getenv(ptr noundef @.str.7) #10
  store ptr %3, ptr %1, align 8
  %4 = load ptr, ptr %1, align 8
  %5 = icmp ne ptr %4, null
  br i1 %5, label %6, label %18

6:                                                ; preds = %0
  %7 = load ptr, ptr %1, align 8
  %8 = load i8, ptr %7, align 1
  %9 = sext i8 %8 to i32
  %10 = icmp ne i32 %9, 0
  br i1 %10, label %11, label %18

11:                                               ; preds = %6
  %12 = load ptr, ptr %1, align 8
  %13 = call i32 @pg_char_to_encoding(ptr noundef %12)
  store i32 %13, ptr %2, align 4
  %14 = load i32, ptr %2, align 4
  %15 = icmp slt i32 %14, 0
  br i1 %15, label %16, label %17

16:                                               ; preds = %11
  store i32 0, ptr %2, align 4
  br label %17

17:                                               ; preds = %16, %11
  br label %18

18:                                               ; preds = %17, %6, %0
  %19 = load i32, ptr %2, align 4
  call void @llvm.lifetime.end.p0(i64 4, ptr %2) #10
  call void @llvm.lifetime.end.p0(i64 8, ptr %1) #10
  ret i32 %19
}