; Function Attrs: nounwind uwtable
define range(i32 0, -2147483648) i32 @PQenv2encoding() local_unnamed_addr #2 {
  %1 = tail call ptr @getenv(ptr noundef nonnull @.str.7) #19
  %.not = icmp eq ptr %1, null
  br i1 %.not, label %6, label %2

2:                                                ; preds = %0
  %3 = load i8, ptr %1, align 1
  %.not5 = icmp eq i8 %3, 0
  br i1 %.not5, label %6, label %4

4:                                                ; preds = %2
  %5 = tail call i32 @pg_char_to_encoding(ptr noundef nonnull %1) #19
  %spec.store.select = tail call i32 @llvm.smax.i32(i32 %5, i32 0)
  br label %6

6:                                                ; preds = %4, %2, %0
  %.0 = phi i32 [ %spec.store.select, %4 ], [ 0, %2 ], [ 0, %0 ]
  ret i32 %.0
}